; ModuleID = '37/993.c'
source_filename = "37/993.c"
target datalayout = "e-m:e-p270:32:32-p271:32:32-p272:64:64-i64:64-f80:128-n8:16:32:64-S128"
target triple = "x86_64-pc-linux-gnu"

@num = dso_local global [26 x i32] zeroinitializer, align 16
@.str = private unnamed_addr constant [3 x i8] c"%d\00", align 1
@.str.1 = private unnamed_addr constant [4 x i8] c"%c\0A\00", align 1
@.str.2 = private unnamed_addr constant [4 x i8] c"no\0A\00", align 1

; Function Attrs: noinline nounwind uwtable
define dso_local i32 @main() #0 {
  %1 = alloca i32, align 4
  %2 = alloca [100001 x i8], align 16
  %3 = alloca i8*, align 8
  %4 = alloca i32, align 4
  %5 = alloca i32, align 4
  %6 = alloca i32, align 4
  %7 = alloca i32, align 4
  %8 = alloca [26 x i32], align 16
  %9 = alloca i32*, align 8
  store i32 0, i32* %1, align 4
  %10 = call i32 (i8*, ...) @__isoc99_scanf(i8* getelementptr inbounds ([3 x i8], [3 x i8]* @.str, i64 0, i64 0), i32* %4)
  %11 = call i32 @getchar()
  store i32 1, i32* %5, align 4
  br label %12

12:                                               ; preds = %86, %0
  %13 = load i32, i32* %5, align 4
  %14 = load i32, i32* %4, align 4
  %15 = icmp sle i32 %13, %14
  br i1 %15, label %16, label %89

16:                                               ; preds = %12
  %17 = getelementptr inbounds [100001 x i8], [100001 x i8]* %2, i64 0, i64 0
  %18 = call i32 (i8*, ...) bitcast (i32 (...)* @gets to i32 (i8*, ...)*)(i8* %17)
  %19 = getelementptr inbounds [100001 x i8], [100001 x i8]* %2, i64 0, i64 0
  %20 = call i64 @strlen(i8* %19) #4
  %21 = trunc i64 %20 to i32
  store i32 %21, i32* %6, align 4
  %22 = getelementptr inbounds [100001 x i8], [100001 x i8]* %2, i64 0, i64 0
  store i8* %22, i8** %3, align 8
  store i32 0, i32* %7, align 4
  %23 = bitcast [26 x i32]* %8 to i8*
  call void @llvm.memset.p0i8.i64(i8* align 16 %23, i8 0, i64 104, i1 false)
  %24 = getelementptr inbounds [26 x i32], [26 x i32]* %8, i64 0, i64 0
  store i32* %24, i32** %9, align 8
  %25 = getelementptr inbounds [100001 x i8], [100001 x i8]* %2, i64 0, i64 0
  store i8* %25, i8** %3, align 8
  br label %26

26:                                               ; preds = %43, %16
  %27 = load i8*, i8** %3, align 8
  %28 = getelementptr inbounds [100001 x i8], [100001 x i8]* %2, i64 0, i64 0
  %29 = load i32, i32* %6, align 4
  %30 = sext i32 %29 to i64
  %31 = getelementptr inbounds i8, i8* %28, i64 %30
  %32 = icmp ult i8* %27, %31
  br i1 %32, label %33, label %46

33:                                               ; preds = %26
  %34 = load i32*, i32** %9, align 8
  %35 = load i8*, i8** %3, align 8
  %36 = load i8, i8* %35, align 1
  %37 = sext i8 %36 to i32
  %38 = sub nsw i32 %37, 97
  %39 = sext i32 %38 to i64
  %40 = getelementptr inbounds i32, i32* %34, i64 %39
  %41 = load i32, i32* %40, align 4
  %42 = add nsw i32 %41, 1
  store i32 %42, i32* %40, align 4
  br label %43

43:                                               ; preds = %33
  %44 = load i8*, i8** %3, align 8
  %45 = getelementptr inbounds i8, i8* %44, i32 1
  store i8* %45, i8** %3, align 8
  br label %26

46:                                               ; preds = %26
  %47 = getelementptr inbounds [100001 x i8], [100001 x i8]* %2, i64 0, i64 0
  store i8* %47, i8** %3, align 8
  br label %48

48:                                               ; preds = %74, %46
  %49 = load i8*, i8** %3, align 8
  %50 = getelementptr inbounds [100001 x i8], [100001 x i8]* %2, i64 0, i64 0
  %51 = load i32, i32* %6, align 4
  %52 = sext i32 %51 to i64
  %53 = getelementptr inbounds i8, i8* %50, i64 %52
  %54 = icmp ult i8* %49, %53
  br i1 %54, label %55, label %77

55:                                               ; preds = %48
  %56 = load i32*, i32** %9, align 8
  %57 = load i8*, i8** %3, align 8
  %58 = load i8, i8* %57, align 1
  %59 = sext i8 %58 to i32
  %60 = sub nsw i32 %59, 97
  %61 = sext i32 %60 to i64
  %62 = getelementptr inbounds i32, i32* %56, i64 %61
  %63 = load i32, i32* %62, align 4
  %64 = icmp eq i32 %63, 1
  br i1 %64, label %65, label %70

65:                                               ; preds = %55
  store i32 -1, i32* %7, align 4
  %66 = load i8*, i8** %3, align 8
  %67 = load i8, i8* %66, align 1
  %68 = sext i8 %67 to i32
  %69 = call i32 (i8*, ...) @printf(i8* getelementptr inbounds ([4 x i8], [4 x i8]* @.str.1, i64 0, i64 0), i32 %68)
  br label %77

70:                                               ; preds = %55
  %71 = load i32, i32* %7, align 4
  %72 = add nsw i32 %71, 1
  store i32 %72, i32* %7, align 4
  br label %73

73:                                               ; preds = %70
  br label %74

74:                                               ; preds = %73
  %75 = load i8*, i8** %3, align 8
  %76 = getelementptr inbounds i8, i8* %75, i32 1
  store i8* %76, i8** %3, align 8
  br label %48

77:                                               ; preds = %65, %48
  %78 = load i32, i32* %7, align 4
  %79 = icmp ne i32 %78, 0
  br i1 %79, label %80, label %85

80:                                               ; preds = %77
  %81 = load i32, i32* %7, align 4
  %82 = icmp ne i32 %81, -1
  br i1 %82, label %83, label %85

83:                                               ; preds = %80
  %84 = call i32 (i8*, ...) @printf(i8* getelementptr inbounds ([4 x i8], [4 x i8]* @.str.2, i64 0, i64 0))
  br label %85

85:                                               ; preds = %83, %80, %77
  br label %86

86:                                               ; preds = %85
  %87 = load i32, i32* %5, align 4
  %88 = add nsw i32 %87, 1
  store i32 %88, i32* %5, align 4
  br label %12

89:                                               ; preds = %12
  ret i32 0
}

declare dso_local i32 @__isoc99_scanf(i8*, ...) #1

declare dso_local i32 @getchar() #1

declare dso_local i32 @gets(...) #1

; Function Attrs: nounwind readonly
declare dso_local i64 @strlen(i8*) #2

; Function Attrs: argmemonly nounwind willreturn
declare void @llvm.memset.p0i8.i64(i8* nocapture writeonly, i8, i64, i1 immarg) #3

declare dso_local i32 @printf(i8*, ...) #1


!llvm.module.flags = !{!0}
!llvm.ident = !{!1}

!0 = !{i32 1, !"wchar_size", i32 4}
!1 = !{!"clang version 10.0.0-4ubuntu1 "}
