; ModuleID = 'source-C-CXX/36/993.c'
source_filename = "source-C-CXX/36/993.c"
target datalayout = "e-m:e-p270:32:32-p271:32:32-p272:64:64-i64:64-f80:128-n8:16:32:64-S128"
target triple = "x86_64-pc-linux-gnu"

%struct._IO_FILE = type { i32, i8*, i8*, i8*, i8*, i8*, i8*, i8*, i8*, i8*, i8*, i8*, %struct._IO_marker*, %struct._IO_FILE*, i32, i32, i64, i16, i8, [1 x i8], i8*, i64, %struct._IO_codecvt*, %struct._IO_wide_data*, %struct._IO_FILE*, i8*, i64, i32, [20 x i8] }
%struct._IO_marker = type opaque
%struct._IO_codecvt = type opaque
%struct._IO_wide_data = type opaque

@num = dso_local local_unnamed_addr global [26 x i32] zeroinitializer, align 16
@.str = private unnamed_addr constant [3 x i8] c"%d\00", align 1
@.str.1 = private unnamed_addr constant [4 x i8] c"%c\0A\00", align 1
@stdin = external local_unnamed_addr global %struct._IO_FILE*, align 8
@str = private unnamed_addr constant [3 x i8] c"no\00", align 1

; Function Attrs: nounwind sspstrong uwtable
define dso_local i32 @main() local_unnamed_addr #0 {
  %1 = alloca [100001 x i8], align 16
  %2 = alloca i32, align 4
  %3 = alloca [26 x i32], align 16
  %4 = getelementptr inbounds [100001 x i8], [100001 x i8]* %1, i64 0, i64 0
  call void @llvm.lifetime.start.p0i8(i64 100001, i8* nonnull %4) #7
  %5 = bitcast i32* %2 to i8*
  call void @llvm.lifetime.start.p0i8(i64 4, i8* nonnull %5) #7
  %6 = call i32 (i8*, ...) @__isoc99_scanf(i8* getelementptr inbounds ([3 x i8], [3 x i8]* @.str, i64 0, i64 0), i32* nonnull %2)
  %7 = load %struct._IO_FILE*, %struct._IO_FILE** @stdin, align 8, !tbaa !5
  %8 = call i32 @getc(%struct._IO_FILE* %7) #7
  %9 = bitcast [26 x i32]* %3 to i8*
  %10 = load i32, i32* %2, align 4, !tbaa !9
  %11 = icmp slt i32 %10, 1
  br i1 %11, label %52, label %12

12:                                               ; preds = %0, %48
  %13 = phi i32 [ %49, %48 ], [ 1, %0 ]
  %14 = call i32 (i8*, ...) bitcast (i32 (...)* @gets to i32 (i8*, ...)*)(i8* nonnull %4) #7
  %15 = call i64 @strlen(i8* noundef nonnull %4) #8
  call void @llvm.lifetime.start.p0i8(i64 104, i8* nonnull %9) #7
  call void @llvm.memset.p0i8.i64(i8* noundef nonnull align 16 dereferenceable(104) %9, i8 0, i64 104, i1 false)
  %16 = shl i64 %15, 32
  %17 = ashr exact i64 %16, 32
  %18 = getelementptr inbounds [100001 x i8], [100001 x i8]* %1, i64 0, i64 %17
  %19 = icmp sgt i64 %16, 0
  br i1 %19, label %21, label %48

20:                                               ; preds = %21
  br i1 %19, label %31, label %48

21:                                               ; preds = %12, %21
  %22 = phi i8* [ %29, %21 ], [ %4, %12 ]
  %23 = load i8, i8* %22, align 1, !tbaa !11
  %24 = sext i8 %23 to i64
  %25 = add nsw i64 %24, -97
  %26 = getelementptr inbounds [26 x i32], [26 x i32]* %3, i64 0, i64 %25
  %27 = load i32, i32* %26, align 4, !tbaa !9
  %28 = add nsw i32 %27, 1
  store i32 %28, i32* %26, align 4, !tbaa !9
  %29 = getelementptr inbounds i8, i8* %22, i64 1
  %30 = icmp ult i8* %29, %18
  br i1 %30, label %21, label %20, !llvm.loop !12

31:                                               ; preds = %20, %42
  %32 = phi i8* [ %43, %42 ], [ %4, %20 ]
  %33 = load i8, i8* %32, align 1, !tbaa !11
  %34 = sext i8 %33 to i64
  %35 = add nsw i64 %34, -97
  %36 = getelementptr inbounds [26 x i32], [26 x i32]* %3, i64 0, i64 %35
  %37 = load i32, i32* %36, align 4, !tbaa !9
  %38 = icmp eq i32 %37, 1
  br i1 %38, label %39, label %42

39:                                               ; preds = %31
  %40 = sext i8 %33 to i32
  %41 = call i32 (i8*, ...) @printf(i8* nonnull dereferenceable(1) getelementptr inbounds ([4 x i8], [4 x i8]* @.str.1, i64 0, i64 0), i32 %40)
  br label %48

42:                                               ; preds = %31
  %43 = getelementptr inbounds i8, i8* %32, i64 1
  %44 = icmp ult i8* %43, %18
  br i1 %44, label %31, label %45, !llvm.loop !14

45:                                               ; preds = %42
  br i1 %19, label %46, label %48

46:                                               ; preds = %45
  %47 = call i32 @puts(i8* nonnull dereferenceable(1) getelementptr inbounds ([3 x i8], [3 x i8]* @str, i64 0, i64 0))
  br label %48

48:                                               ; preds = %12, %20, %39, %46, %45
  call void @llvm.lifetime.end.p0i8(i64 104, i8* nonnull %9) #7
  %49 = add nuw nsw i32 %13, 1
  %50 = load i32, i32* %2, align 4, !tbaa !9
  %51 = icmp slt i32 %13, %50
  br i1 %51, label %12, label %52, !llvm.loop !15

52:                                               ; preds = %48, %0
  call void @llvm.lifetime.end.p0i8(i64 4, i8* nonnull %5) #7
  call void @llvm.lifetime.end.p0i8(i64 100001, i8* nonnull %4) #7
  ret i32 0
}

; Function Attrs: argmemonly mustprogress nofree nosync nounwind willreturn
declare void @llvm.lifetime.start.p0i8(i64 immarg, i8* nocapture) #1

; Function Attrs: nofree nounwind
declare noundef i32 @__isoc99_scanf(i8* nocapture noundef readonly, ...) local_unnamed_addr #2

declare i32 @gets(...) local_unnamed_addr #3

; Function Attrs: argmemonly mustprogress nofree nounwind readonly willreturn
declare i64 @strlen(i8* nocapture) local_unnamed_addr #4

; Function Attrs: argmemonly mustprogress nofree nounwind willreturn writeonly
declare void @llvm.memset.p0i8.i64(i8* nocapture writeonly, i8, i64, i1 immarg) #5

; Function Attrs: nofree nounwind
declare noundef i32 @printf(i8* nocapture noundef readonly, ...) local_unnamed_addr #2

; Function Attrs: argmemonly mustprogress nofree nosync nounwind willreturn
declare void @llvm.lifetime.end.p0i8(i64 immarg, i8* nocapture) #1

; Function Attrs: nofree nounwind
declare noundef i32 @getc(%struct._IO_FILE* nocapture noundef) local_unnamed_addr #2

; Function Attrs: nofree nounwind
declare noundef i32 @puts(i8* nocapture noundef readonly) local_unnamed_addr #6


!llvm.module.flags = !{!0, !1, !2, !3}
!llvm.ident = !{!4}

!0 = !{i32 1, !"wchar_size", i32 4}
!1 = !{i32 7, !"PIC Level", i32 2}
!2 = !{i32 7, !"PIE Level", i32 2}
!3 = !{i32 7, !"uwtable", i32 1}
!4 = !{!"clang version 13.0.0"}
!5 = !{!6, !6, i64 0}
!6 = !{!"any pointer", !7, i64 0}
!7 = !{!"omnipotent char", !8, i64 0}
!8 = !{!"Simple C/C++ TBAA"}
!9 = !{!10, !10, i64 0}
!10 = !{!"int", !7, i64 0}
!11 = !{!7, !7, i64 0}
!12 = distinct !{!12, !13}
!13 = !{!"llvm.loop.mustprogress"}
!14 = distinct !{!14, !13}
!15 = distinct !{!15, !13}
